target datalayout = "e-m:e-p270:32:32-p271:32:32-p272:64:64-i64:64-i128:128-f80:128-n8:16:32:64-S128"
target triple = "x86_64-pc-linux-gnu"

%struct.printTableFooter = type { ptr, ptr }
%struct.printTableContent = type { ptr, ptr, i32, i32, ptr, ptr, ptr, ptr, i64, ptr, ptr, ptr, ptr, ptr }

; Function Attrs: nounwind uwtable
define dso_local void @printTableAddFooter(ptr noundef %0, ptr noundef %1) #0 {
  %3 = alloca ptr, align 8
  %4 = alloca ptr, align 8
  %5 = alloca ptr, align 8
  store ptr %0, ptr %3, align 8
  store ptr %1, ptr %4, align 8
  call void @llvm.lifetime.start.p0(i64 8, ptr %5) #8
  %6 = call ptr @pg_malloc0(i64 noundef 16)
  store ptr %6, ptr %5, align 8
  %7 = load ptr, ptr %4, align 8
  %8 = call ptr @pg_strdup(ptr noundef %7)
  %9 = load ptr, ptr %5, align 8
  %10 = getelementptr inbounds nuw %struct.printTableFooter, ptr %9, i32 0, i32 0
  store ptr %8, ptr %10, align 8
  %11 = load ptr, ptr %3, align 8
  %12 = getelementptr inbounds nuw %struct.printTableContent, ptr %11, i32 0, i32 10
  %13 = load ptr, ptr %12, align 8
  %14 = icmp eq ptr %13, null
  br i1 %14, label %15, label %19

15:                                               ; preds = %2
  %16 = load ptr, ptr %5, align 8
  %17 = load ptr, ptr %3, align 8
  %18 = getelementptr inbounds nuw %struct.printTableContent, ptr %17, i32 0, i32 10
  store ptr %16, ptr %18, align 8
  br label %25

19:                                               ; preds = %2
  %20 = load ptr, ptr %5, align 8
  %21 = load ptr, ptr %3, align 8
  %22 = getelementptr inbounds nuw %struct.printTableContent, ptr %21, i32 0, i32 11
  %23 = load ptr, ptr %22, align 8
  %24 = getelementptr inbounds nuw %struct.printTableFooter, ptr %23, i32 0, i32 1
  store ptr %20, ptr %24, align 8
  br label %25

25:                                               ; preds = %19, %15
  %26 = load ptr, ptr %5, align 8
  %27 = load ptr, ptr %3, align 8
  %28 = getelementptr inbounds nuw %struct.printTableContent, ptr %27, i32 0, i32 11
  store ptr %26, ptr %28, align 8
  call void @llvm.lifetime.end.p0(i64 8, ptr %5) #8
  ret void
}

; Function Attrs: nounwind uwtable
define dso_local void @printTableSetFooter(ptr noundef %0, ptr noundef %1) #0 {
  %3 = alloca ptr, align 8
  %4 = alloca ptr, align 8
  store ptr %0, ptr %3, align 8
  store ptr %1, ptr %4, align 8
  %5 = load ptr, ptr %3, align 8
  %6 = getelementptr inbounds nuw %struct.printTableContent, ptr %5, i32 0, i32 10
  %7 = load ptr, ptr %6, align 8
  %8 = icmp ne ptr %7, null
  br i1 %8, label %9, label %21

9:                                                ; preds = %2
  %10 = load ptr, ptr %3, align 8
  %11 = getelementptr inbounds nuw %struct.printTableContent, ptr %10, i32 0, i32 11
  %12 = load ptr, ptr %11, align 8
  %13 = getelementptr inbounds nuw %struct.printTableFooter, ptr %12, i32 0, i32 0
  %14 = load ptr, ptr %13, align 8
  call void @free(ptr noundef %14) #8
  %15 = load ptr, ptr %4, align 8
  %16 = call ptr @pg_strdup(ptr noundef %15)
  %17 = load ptr, ptr %3, align 8
  %18 = getelementptr inbounds nuw %struct.printTableContent, ptr %17, i32 0, i32 11
  %19 = load ptr, ptr %18, align 8
  %20 = getelementptr inbounds nuw %struct.printTableFooter, ptr %19, i32 0, i32 0
  store ptr %16, ptr %20, align 8
  br label %24

21:                                               ; preds = %2
  %22 = load ptr, ptr %3, align 8
  %23 = load ptr, ptr %4, align 8
  call void @printTableAddFooter(ptr noundef %22, ptr noundef %23)
  br label %24

24:                                               ; preds = %21, %9
  ret void
}