; Function Attrs: nounwind uwtable
define dso_local void @printTableSetFooter(ptr noundef captures(none) %0, ptr noundef %1) local_unnamed_addr #3 {
  %3 = getelementptr inbounds nuw i8, ptr %0, i64 72
  %4 = load ptr, ptr %3, align 8
  %.not = icmp eq ptr %4, null
  br i1 %.not, label %11, label %5

5:                                                ; preds = %2
  %6 = getelementptr inbounds nuw i8, ptr %0, i64 80
  %7 = load ptr, ptr %6, align 8
  %8 = load ptr, ptr %7, align 8
  tail call void @free(ptr noundef %8) #19
  %9 = tail call ptr @pg_strdup(ptr noundef %1) #19
  %10 = load ptr, ptr %6, align 8
  store ptr %9, ptr %10, align 8
  br label %22

11:                                               ; preds = %2
  %12 = tail call ptr @pg_malloc0(i64 noundef 16) #19
  %13 = tail call ptr @pg_strdup(ptr noundef %1) #19
  store ptr %13, ptr %12, align 8
  %14 = load ptr, ptr %3, align 8
  %15 = icmp eq ptr %14, null
  br i1 %15, label %16, label %17

16:                                               ; preds = %11
  store ptr %12, ptr %3, align 8
  br label %printTableAddFooter.exit

17:                                               ; preds = %11
  %18 = getelementptr inbounds nuw i8, ptr %0, i64 80
  %19 = load ptr, ptr %18, align 8
  %20 = getelementptr inbounds nuw i8, ptr %19, i64 8
  store ptr %12, ptr %20, align 8
  br label %printTableAddFooter.exit

printTableAddFooter.exit:                         ; preds = %16, %17
  %21 = getelementptr inbounds nuw i8, ptr %0, i64 80
  store ptr %12, ptr %21, align 8
  br label %22

22:                                               ; preds = %printTableAddFooter.exit, %5
  ret void
}